; Function Attrs: nounwind uwtable
define hidden ptr @X509_NAME_ENTRY_create_by_OBJ(ptr noundef captures(address_is_null) %0, ptr noundef %1, i32 noundef %2, ptr noundef %3, i32 noundef %4) local_unnamed_addr #0 {
  %6 = icmp eq ptr %0, null
  br i1 %6, label %10, label %7

7:                                                ; preds = %5
  %8 = load ptr, ptr %0, align 8, !tbaa !30
  %9 = icmp eq ptr %8, null
  br i1 %9, label %10, label %13

10:                                               ; preds = %7, %5
  %11 = tail call ptr @X509_NAME_ENTRY_new() #7
  %12 = icmp eq ptr %11, null
  br i1 %12, label %28, label %13

13:                                               ; preds = %7, %10
  %.0 = phi ptr [ %11, %10 ], [ %8, %7 ]
  %14 = icmp eq ptr %1, null
  br i1 %14, label %X509_NAME_ENTRY_set_object.exit.thread, label %X509_NAME_ENTRY_set_object.exit

X509_NAME_ENTRY_set_object.exit.thread:           ; preds = %13
  tail call void @ERR_put_error(i32 noundef 11, i32 noundef 0, i32 noundef 67, ptr noundef nonnull @.str, i32 noundef 341) #7
  br label %24

X509_NAME_ENTRY_set_object.exit:                  ; preds = %13
  %15 = load ptr, ptr %.0, align 8, !tbaa !15
  tail call void @ASN1_OBJECT_free(ptr noundef %15) #7
  %16 = tail call ptr @OBJ_dup(ptr noundef nonnull %1) #7
  store ptr %16, ptr %.0, align 8, !tbaa !15
  %.not27 = icmp eq ptr %16, null
  br i1 %.not27, label %24, label %17

17:                                               ; preds = %X509_NAME_ENTRY_set_object.exit
  %18 = tail call i32 @X509_NAME_ENTRY_set_data(ptr noundef nonnull %.0, i32 noundef %2, ptr noundef %3, i32 noundef %4)
  %.not22 = icmp eq i32 %18, 0
  br i1 %.not22, label %24, label %19

19:                                               ; preds = %17
  br i1 %6, label %28, label %20

20:                                               ; preds = %19
  %21 = load ptr, ptr %0, align 8, !tbaa !30
  %22 = icmp eq ptr %21, null
  br i1 %22, label %23, label %28

23:                                               ; preds = %20
  store ptr %.0, ptr %0, align 8, !tbaa !30
  br label %28

24:                                               ; preds = %X509_NAME_ENTRY_set_object.exit.thread, %17, %X509_NAME_ENTRY_set_object.exit
  br i1 %6, label %27, label %25

25:                                               ; preds = %24
  %26 = load ptr, ptr %0, align 8, !tbaa !30
  %.not23 = icmp eq ptr %.0, %26
  br i1 %.not23, label %28, label %27

27:                                               ; preds = %25, %24
  tail call void @X509_NAME_ENTRY_free(ptr noundef nonnull %.0) #7
  br label %28

28:                                               ; preds = %25, %27, %19, %20, %23, %10
  %.018 = phi ptr [ null, %10 ], [ %.0, %23 ], [ %.0, %20 ], [ %.0, %19 ], [ null, %27 ], [ null, %25 ]
  ret ptr %.018
}